target datalayout = "e-m:e-p270:32:32-p271:32:32-p272:64:64-i64:64-i128:128-f80:128-n8:16:32:64-S128"
target triple = "x86_64-pc-linux-gnu"

%"class.gmx::MttkData" = type { %"class.gmx::ICheckpointHelperClient", float, float, float, double, double, double, float, [3 x [3 x float]], float, float, float, ptr, ptr, %"class.std::__cxx11::basic_string" }
%"class.gmx::ICheckpointHelperClient" = type { ptr }
%"class.std::__cxx11::basic_string" = type { %"struct.std::__cxx11::basic_string<char>::_Alloc_hider", i64, %union.anon }
%"struct.std::__cxx11::basic_string<char>::_Alloc_hider" = type { ptr }
%union.anon = type { i64, [8 x i8] }
%class.anon.176 = type { ptr }
%"class.gmx::ArrayRef.377" = type { %"struct.gmx::ArrayRefIter.378", %"struct.gmx::ArrayRefIter.378" }
%"struct.gmx::ArrayRefIter.378" = type { ptr }

; Function Attrs: mustprogress nounwind uwtable
define linkonce_odr noundef nonnull align 4 dereferenceable(4) ptr @_ZNK3gmx12ArrayRefIterIKfEdeEv(ptr noundef nonnull align 8 dereferenceable(8) %0) #2 comdat align 2 {
  %2 = alloca ptr, align 8
  store ptr %0, ptr %2, align 8, !tbaa !708
  %3 = load ptr, ptr %2, align 8
  %4 = getelementptr inbounds nuw %"struct.gmx::ArrayRefIter.378", ptr %3, i32 0, i32 0
  %5 = load ptr, ptr %4, align 8, !tbaa !710
  ret ptr %5
}

; Function Attrs: mustprogress nounwind uwtable
define linkonce_odr noundef nonnull align 8 dereferenceable(8) ptr @_ZN3gmx12ArrayRefIterIKfEpLEl(ptr noundef nonnull align 8 dereferenceable(8) %0, i64 noundef %1) #2 comdat align 2 {
  %3 = alloca ptr, align 8
  %4 = alloca i64, align 8
  store ptr %0, ptr %3, align 8, !tbaa !708
  store i64 %1, ptr %4, align 8, !tbaa !35
  %5 = load ptr, ptr %3, align 8
  %6 = load i64, ptr %4, align 8, !tbaa !35
  %7 = getelementptr inbounds nuw %"struct.gmx::ArrayRefIter.378", ptr %5, i32 0, i32 0
  %8 = load ptr, ptr %7, align 8, !tbaa !710
  %9 = getelementptr inbounds float, ptr %8, i64 %6
  store ptr %9, ptr %7, align 8, !tbaa !710
  ret ptr %5
}

; Function Attrs: mustprogress nounwind uwtable
define linkonce_odr noundef nonnull align 8 dereferenceable(8) ptr @_ZNK3gmx5boost14stl_interfaces2v118iterator_interfaceINS_12ArrayRefIterIKfEESt26random_access_iterator_tagS5_RS5_PS5_lvE7derivedEv(ptr noundef nonnull align 1 dereferenceable(1) %0) #2 comdat align 2 {
  %2 = alloca ptr, align 8
  store ptr %0, ptr %2, align 8, !tbaa !706
  %3 = load ptr, ptr %2, align 8
  ret ptr %3
}

; Function Attrs: mustprogress nounwind uwtable
define linkonce_odr noundef nonnull align 4 dereferenceable(4) ptr @_ZNK3gmx5boost14stl_interfaces2v118iterator_interfaceINS_12ArrayRefIterIKfEESt26random_access_iterator_tagS5_RS5_PS5_lvEixIS6_EEDTcmpLclsr3stdE7declvalIRT_EEfp_declsr3stdE7declvalISD_EEEl(ptr noundef nonnull align 1 dereferenceable(1) %0, i64 noundef %1) #2 comdat align 2 {
  %3 = alloca ptr, align 8
  %4 = alloca i64, align 8
  %5 = alloca %"struct.gmx::ArrayRefIter.378", align 8
  store ptr %0, ptr %3, align 8, !tbaa !706
  store i64 %1, ptr %4, align 8, !tbaa !35
  %6 = load ptr, ptr %3, align 8
  call void @llvm.lifetime.start.p0(i64 8, ptr %5) #21
  %7 = call noundef nonnull align 8 dereferenceable(8) ptr @_ZNK3gmx5boost14stl_interfaces2v118iterator_interfaceINS_12ArrayRefIterIKfEESt26random_access_iterator_tagS5_RS5_PS5_lvE7derivedEv(ptr noundef nonnull align 1 dereferenceable(1) %6) #21
  call void @llvm.memcpy.p0.p0.i64(ptr align 8 %5, ptr align 8 %7, i64 8, i1 false)
  %8 = load i64, ptr %4, align 8, !tbaa !35
  %9 = call noundef nonnull align 8 dereferenceable(8) ptr @_ZN3gmx12ArrayRefIterIKfEpLEl(ptr noundef nonnull align 8 dereferenceable(8) %5, i64 noundef %8) #21
  %10 = call noundef nonnull align 4 dereferenceable(4) ptr @_ZNK3gmx12ArrayRefIterIKfEdeEv(ptr noundef nonnull align 8 dereferenceable(8) %5) #21
  call void @llvm.lifetime.end.p0(i64 8, ptr %5) #21
  ret ptr %10
}

; Function Attrs: mustprogress nounwind uwtable
define void @_ZN3gmx8MttkData26updateReferenceTemperatureEfNS_35ReferenceTemperatureChangeAlgorithmE(ptr noundef nonnull align 8 dereferenceable(152) %0, float noundef %1, i32 noundef %2) #2 align 2 {
  %4 = alloca ptr, align 8
  %5 = alloca float, align 4
  %6 = alloca i32, align 4
  store ptr %0, ptr %4, align 8, !tbaa !4
  store float %1, ptr %5, align 4, !tbaa !111
  store i32 %2, ptr %6, align 4, !tbaa !702
  %7 = load ptr, ptr %4, align 8
  %8 = load float, ptr %5, align 4, !tbaa !111
  %9 = getelementptr inbounds nuw %"class.gmx::MttkData", ptr %7, i32 0, i32 11
  %10 = load float, ptr %9, align 8, !tbaa !704
  %11 = fdiv float %8, %10
  %12 = getelementptr inbounds nuw %"class.gmx::MttkData", ptr %7, i32 0, i32 3
  %13 = load float, ptr %12, align 8, !tbaa !705
  %14 = fmul float %13, %11
  store float %14, ptr %12, align 8, !tbaa !705
  %15 = load float, ptr %5, align 4, !tbaa !111
  %16 = getelementptr inbounds nuw %"class.gmx::MttkData", ptr %7, i32 0, i32 11
  store float %15, ptr %16, align 8, !tbaa !704
  ret void
}

; Function Attrs: mustprogress nounwind uwtable
define linkonce_odr noundef nonnull align 4 dereferenceable(4) ptr @_ZNK3gmx8ArrayRefIKfEixEm(ptr noundef nonnull align 8 dereferenceable(16) %0, i64 noundef %1) #2 comdat align 2 {
  %3 = alloca ptr, align 8
  %4 = alloca i64, align 8
  store ptr %0, ptr %3, align 8, !tbaa !700
  store i64 %1, ptr %4, align 8, !tbaa !35
  %5 = load ptr, ptr %3, align 8
  %6 = getelementptr inbounds nuw %"class.gmx::ArrayRef.377", ptr %5, i32 0, i32 0
  %7 = load i64, ptr %4, align 8, !tbaa !35
  %8 = call noundef nonnull align 4 dereferenceable(4) ptr @_ZNK3gmx5boost14stl_interfaces2v118iterator_interfaceINS_12ArrayRefIterIKfEESt26random_access_iterator_tagS5_RS5_PS5_lvEixIS6_EEDTcmpLclsr3stdE7declvalIRT_EEfp_declsr3stdE7declvalISD_EEEl(ptr noundef nonnull align 1 dereferenceable(1) %6, i64 noundef %7) #21
  ret ptr %8
}

; Function Attrs: inlinehint mustprogress uwtable
define internal void @"_ZZN3gmx8MttkData5buildEPNS_19LegacySimulatorDataEPNS_38ModularSimulatorAlgorithmBuilderHelperEPNS_19StatePropagatorDataEPNS_10EnergyDataERKNS_31MttkPropagatorConnectionDetailsEENK3$_2clENS_8ArrayRefIKfEENS_35ReferenceTemperatureChangeAlgorithmE"(ptr noundef nonnull align 8 dereferenceable(8) %0, ptr %1, ptr %2, i32 noundef %3) #5 align 2 {
  %5 = alloca %"class.gmx::ArrayRef.377", align 8
  %6 = alloca ptr, align 8
  %7 = alloca i32, align 4
  %8 = getelementptr inbounds nuw { ptr, ptr }, ptr %5, i32 0, i32 0
  store ptr %1, ptr %8, align 8
  %9 = getelementptr inbounds nuw { ptr, ptr }, ptr %5, i32 0, i32 1
  store ptr %2, ptr %9, align 8
  store ptr %0, ptr %6, align 8, !tbaa !223
  store i32 %3, ptr %7, align 4, !tbaa !702
  %10 = load ptr, ptr %6, align 8
  %11 = getelementptr inbounds nuw %class.anon.176, ptr %10, i32 0, i32 0
  %12 = load ptr, ptr %11, align 8, !tbaa !213
  %13 = call noundef nonnull align 4 dereferenceable(4) ptr @_ZNK3gmx8ArrayRefIKfEixEm(ptr noundef nonnull align 8 dereferenceable(16) %5, i64 noundef 0)
  %14 = load float, ptr %13, align 4, !tbaa !111
  %15 = load i32, ptr %7, align 4, !tbaa !702
  call void @_ZN3gmx8MttkData26updateReferenceTemperatureEfNS_35ReferenceTemperatureChangeAlgorithmE(ptr noundef nonnull align 8 dereferenceable(152) %12, float noundef %14, i32 noundef %15)
  ret void
}

; Function Attrs: mustprogress nounwind uwtable
define linkonce_odr noundef ptr @_ZNKSt9_Any_data9_M_accessEv(ptr noundef nonnull align 8 dereferenceable(16) %0) #2 comdat align 2 {
  %2 = alloca ptr, align 8
  store ptr %0, ptr %2, align 8, !tbaa !690
  %3 = load ptr, ptr %2, align 8
  %4 = getelementptr inbounds [16 x i8], ptr %3, i64 0, i64 0
  ret ptr %4
}

; Function Attrs: mustprogress uwtable
define internal void @"_ZSt13__invoke_implIvRZN3gmx8MttkData5buildEPNS0_19LegacySimulatorDataEPNS0_38ModularSimulatorAlgorithmBuilderHelperEPNS0_19StatePropagatorDataEPNS0_10EnergyDataERKNS0_31MttkPropagatorConnectionDetailsEE3$_2JNS0_8ArrayRefIKfEENS0_35ReferenceTemperatureChangeAlgorithmEEET_St14__invoke_otherOT0_DpOT1_"(ptr noundef nonnull align 8 dereferenceable(8) %0, ptr noundef nonnull align 8 dereferenceable(16) %1, ptr noundef nonnull align 4 dereferenceable(4) %2) #1 {
  %4 = alloca ptr, align 8
  %5 = alloca ptr, align 8
  %6 = alloca ptr, align 8
  %7 = alloca %"class.gmx::ArrayRef.377", align 8
  store ptr %0, ptr %4, align 8, !tbaa !223
  store ptr %1, ptr %5, align 8, !tbaa !700
  store ptr %2, ptr %6, align 8, !tbaa !223
  %8 = load ptr, ptr %4, align 8, !tbaa !223
  %9 = load ptr, ptr %5, align 8, !tbaa !700
  call void @llvm.memcpy.p0.p0.i64(ptr align 8 %7, ptr align 8 %9, i64 16, i1 false)
  %10 = load ptr, ptr %6, align 8, !tbaa !223
  %11 = load i32, ptr %10, align 4, !tbaa !702
  %12 = getelementptr inbounds nuw { ptr, ptr }, ptr %7, i32 0, i32 0
  %13 = load ptr, ptr %12, align 8
  %14 = getelementptr inbounds nuw { ptr, ptr }, ptr %7, i32 0, i32 1
  %15 = load ptr, ptr %14, align 8
  call void @"_ZZN3gmx8MttkData5buildEPNS_19LegacySimulatorDataEPNS_38ModularSimulatorAlgorithmBuilderHelperEPNS_19StatePropagatorDataEPNS_10EnergyDataERKNS_31MttkPropagatorConnectionDetailsEENK3$_2clENS_8ArrayRefIKfEENS_35ReferenceTemperatureChangeAlgorithmE"(ptr noundef nonnull align 8 dereferenceable(8) %8, ptr %13, ptr %15, i32 noundef %11)
  ret void
}

; Function Attrs: mustprogress nounwind uwtable
define internal noundef nonnull align 8 dereferenceable(8) ptr @"_ZNKSt9_Any_data9_M_accessIZN3gmx8MttkData5buildEPNS1_19LegacySimulatorDataEPNS1_38ModularSimulatorAlgorithmBuilderHelperEPNS1_19StatePropagatorDataEPNS1_10EnergyDataERKNS1_31MttkPropagatorConnectionDetailsEE3$_2EERKT_v"(ptr noundef nonnull align 8 dereferenceable(16) %0) #2 align 2 {
  %2 = alloca ptr, align 8
  store ptr %0, ptr %2, align 8, !tbaa !690
  %3 = load ptr, ptr %2, align 8
  %4 = call noundef ptr @_ZNKSt9_Any_data9_M_accessEv(ptr noundef nonnull align 8 dereferenceable(16) %3) #21
  ret ptr %4
}

; Function Attrs: mustprogress uwtable
define internal void @"_ZSt10__invoke_rIvRZN3gmx8MttkData5buildEPNS0_19LegacySimulatorDataEPNS0_38ModularSimulatorAlgorithmBuilderHelperEPNS0_19StatePropagatorDataEPNS0_10EnergyDataERKNS0_31MttkPropagatorConnectionDetailsEE3$_2JNS0_8ArrayRefIKfEENS0_35ReferenceTemperatureChangeAlgorithmEEENSt9enable_ifIX16is_invocable_r_vIT_T0_DpT1_EESK_E4typeEOSL_DpOSM_"(ptr noundef nonnull align 8 dereferenceable(8) %0, ptr noundef nonnull align 8 dereferenceable(16) %1, ptr noundef nonnull align 4 dereferenceable(4) %2) #1 {
  %4 = alloca ptr, align 8
  %5 = alloca ptr, align 8
  %6 = alloca ptr, align 8
  store ptr %0, ptr %4, align 8, !tbaa !223
  store ptr %1, ptr %5, align 8, !tbaa !700
  store ptr %2, ptr %6, align 8, !tbaa !223
  %7 = load ptr, ptr %4, align 8, !tbaa !223
  %8 = load ptr, ptr %5, align 8, !tbaa !700
  %9 = load ptr, ptr %6, align 8, !tbaa !223
  call void @"_ZSt13__invoke_implIvRZN3gmx8MttkData5buildEPNS0_19LegacySimulatorDataEPNS0_38ModularSimulatorAlgorithmBuilderHelperEPNS0_19StatePropagatorDataEPNS0_10EnergyDataERKNS0_31MttkPropagatorConnectionDetailsEE3$_2JNS0_8ArrayRefIKfEENS0_35ReferenceTemperatureChangeAlgorithmEEET_St14__invoke_otherOT0_DpOT1_"(ptr noundef nonnull align 8 dereferenceable(8) %7, ptr noundef nonnull align 8 dereferenceable(16) %8, ptr noundef nonnull align 4 dereferenceable(4) %9)
  ret void
}

; Function Attrs: mustprogress nounwind uwtable
define internal noundef ptr @"_ZNSt14_Function_base13_Base_managerIZN3gmx8MttkData5buildEPNS1_19LegacySimulatorDataEPNS1_38ModularSimulatorAlgorithmBuilderHelperEPNS1_19StatePropagatorDataEPNS1_10EnergyDataERKNS1_31MttkPropagatorConnectionDetailsEE3$_2E14_M_get_pointerERKSt9_Any_data"(ptr noundef nonnull align 8 dereferenceable(16) %0) #2 align 2 {
  %2 = alloca ptr, align 8
  %3 = alloca ptr, align 8
  store ptr %0, ptr %2, align 8, !tbaa !690
  call void @llvm.lifetime.start.p0(i64 8, ptr %3) #21
  %4 = load ptr, ptr %2, align 8, !tbaa !690
  %5 = call noundef nonnull align 8 dereferenceable(8) ptr @"_ZNKSt9_Any_data9_M_accessIZN3gmx8MttkData5buildEPNS1_19LegacySimulatorDataEPNS1_38ModularSimulatorAlgorithmBuilderHelperEPNS1_19StatePropagatorDataEPNS1_10EnergyDataERKNS1_31MttkPropagatorConnectionDetailsEE3$_2EERKT_v"(ptr noundef nonnull align 8 dereferenceable(16) %4) #21
  store ptr %5, ptr %3, align 8, !tbaa !223
  %6 = load ptr, ptr %3, align 8, !tbaa !223
  call void @llvm.lifetime.end.p0(i64 8, ptr %3) #21
  ret ptr %6
}

; Function Attrs: mustprogress uwtable
define internal void @"_ZNSt17_Function_handlerIFvN3gmx8ArrayRefIKfEENS0_35ReferenceTemperatureChangeAlgorithmEEZNS0_8MttkData5buildEPNS0_19LegacySimulatorDataEPNS0_38ModularSimulatorAlgorithmBuilderHelperEPNS0_19StatePropagatorDataEPNS0_10EnergyDataERKNS0_31MttkPropagatorConnectionDetailsEE3$_2E9_M_invokeERKSt9_Any_dataOS3_OS4_"(ptr noundef nonnull align 8 dereferenceable(16) %0, ptr noundef nonnull align 8 dereferenceable(16) %1, ptr noundef nonnull align 4 dereferenceable(4) %2) #1 align 2 {
  %4 = alloca ptr, align 8
  %5 = alloca ptr, align 8
  %6 = alloca ptr, align 8
  store ptr %0, ptr %4, align 8, !tbaa !690
  store ptr %1, ptr %5, align 8, !tbaa !700
  store ptr %2, ptr %6, align 8, !tbaa !223
  %7 = load ptr, ptr %4, align 8, !tbaa !690
  %8 = call noundef ptr @"_ZNSt14_Function_base13_Base_managerIZN3gmx8MttkData5buildEPNS1_19LegacySimulatorDataEPNS1_38ModularSimulatorAlgorithmBuilderHelperEPNS1_19StatePropagatorDataEPNS1_10EnergyDataERKNS1_31MttkPropagatorConnectionDetailsEE3$_2E14_M_get_pointerERKSt9_Any_data"(ptr noundef nonnull align 8 dereferenceable(16) %7) #21
  %9 = load ptr, ptr %5, align 8, !tbaa !700
  %10 = load ptr, ptr %6, align 8, !tbaa !223
  call void @"_ZSt10__invoke_rIvRZN3gmx8MttkData5buildEPNS0_19LegacySimulatorDataEPNS0_38ModularSimulatorAlgorithmBuilderHelperEPNS0_19StatePropagatorDataEPNS0_10EnergyDataERKNS0_31MttkPropagatorConnectionDetailsEE3$_2JNS0_8ArrayRefIKfEENS0_35ReferenceTemperatureChangeAlgorithmEEENSt9enable_ifIX16is_invocable_r_vIT_T0_DpT1_EESK_E4typeEOSL_DpOSM_"(ptr noundef nonnull align 8 dereferenceable(8) %8, ptr noundef nonnull align 8 dereferenceable(16) %9, ptr noundef nonnull align 4 dereferenceable(4) %10)
  ret void
}