; Function Attrs: mustprogress nofree norecurse nosync nounwind willreturn memory(readwrite, inaccessiblemem: none) uwtable
define internal void @"_ZNSt17_Function_handlerIFvN3gmx8ArrayRefIKfEENS0_35ReferenceTemperatureChangeAlgorithmEEZNS0_8MttkData5buildEPNS0_19LegacySimulatorDataEPNS0_38ModularSimulatorAlgorithmBuilderHelperEPNS0_19StatePropagatorDataEPNS0_10EnergyDataERKNS0_31MttkPropagatorConnectionDetailsEE3$_2E9_M_invokeERKSt9_Any_dataOS3_OS4_"(ptr noundef nonnull readonly align 8 captures(none) dereferenceable(16) %0, ptr noundef nonnull readonly align 8 captures(none) dereferenceable(16) %1, ptr nonnull readonly align 4 captures(none) %2) #25 align 2 {
  %.val = load ptr, ptr %0, align 8, !tbaa !323
  %.val3 = load ptr, ptr %1, align 8
  %.val3.val = load float, ptr %.val3, align 4, !tbaa !115
  %4 = getelementptr inbounds nuw i8, ptr %.val, i64 96
  %5 = load float, ptr %4, align 8, !tbaa !325
  %6 = fdiv float %.val3.val, %5
  %7 = getelementptr inbounds nuw i8, ptr %.val, i64 16
  %8 = load float, ptr %7, align 8, !tbaa !326
  %9 = fmul float %8, %6
  store float %9, ptr %7, align 8, !tbaa !326
  store float %.val3.val, ptr %4, align 8, !tbaa !325
  ret void
}